(dp1
S'comment'
p2
S'TEXT'
p3
sS'post_id'
p4
S'REFERENCES post(id) ON DELETE CASCADE'
p5
sS'dateline'
p6
S'TIMESTAMP'
p7
sS'id'
p8
S'INTEGER PRIMARY KEY AUTOINCREMENT'
p9
sS'author'
p10
S'CHAR(512)'
p11
s.