(dp1
S'output'
p2
S''
sS'layer'
p3
S'/home/mengu/projects/web2py/applications/blog/models/post.py'
p4
sS'code'
p5
S'def getRecentPosts(limit):\n\tposts = db(db.post.id>0).select(orderby=~db.post.dateline, limitby=(0,limit))\n\trecentPosts = ""\n\tfor post in posts:\n\t\trecentPosts += str(DIV(XML(\'<a href="\'+URL(r=request, c="post", f="view", args=post.id)+\'">\'+post.title+\'</a>\')))\n\treturn recentPosts\n\t\ndef getRecentComments(limit):\n\tcomments = db(db.comment.id>0).select(orderby=~db.comment.dateline, limitby(0, limit))\n\trecentComments = ""\n\tfor comment in comments:\n\t\trecentComments += str(DIV(XML(\'<a href="\'+URL(r=request, c="post", f="view", args=comment.post_id)+\'">\'+comment.post_id.title+\'</a>\')))\n\treturn recentComments\n'
p6
sS'traceback'
p7
S'Traceback (most recent call last):\n  File "/home/mengu/projects/web2py/gluon/restricted.py", line 182, in restricted\n    ccode = compile(code.replace(\'\\r\\n\', \'\\n\'), layer, \'exec\')\n  File "/home/mengu/projects/web2py/applications/blog/models/post.py", line 9\n    comments = db(db.comment.id>0).select(orderby=~db.comment.dateline, limitby(0, limit))\nSyntaxError: non-keyword arg after keyword arg\n'
p8
s.