(dp1
S'output'
p2
S''
sS'layer'
p3
S'/home/mengu/projects/web2py/applications/blog/views/post/view.html'
p4
sS'code'
p5
S'response.write(\'<!DOCTYPE html PUBLIC "-//W3C//DTD XHTML 1.0 Transitional//EN" "http://www.w3.org/TR/xhtml1/DTD/xhtml1-transitional.dtd">\\n<html xmlns="http://www.w3.org/1999/xhtml" xml:lang="\',escape=False)\nresponse.write(T.accepted_language or \'en\')\nresponse.write(\'">\\n  <head>\\n    <title>\',escape=False)\nresponse.write(response.title or request.application)\nresponse.write(\'</title>\\n    <meta http-equiv="Content-Type" content="text/html; charset=UTF-8" />     \\n    \',escape=False)\nresponse.files.append(URL(request.application,\'static\',\'base.css\'))\nresponse.write(\'\\n    \',escape=False)\nresponse.files.insert(0,URL(r=request,c=\'static\',f=\'jquery.js\'))\nresponse.files.insert(1,URL(r=request,c=\'static\',f=\'calendar.css\'))\nresponse.files.insert(2,URL(r=request,c=\'static\',f=\'calendar.js\'))\nfor _item in response.meta or []:\n    response.write(\'\\n     <meta name="\',escape=False)\n    response.write(_item)\n    response.write(\'" content="\',escape=False)\n    response.write(response.meta[_item])\n    response.write(\'" />\',escape=False)\n    pass\nfor _file in tuple(set(response.files or [])):\n    if _file[-4:].lower()==\'.css\':\n        response.write(\'\\n     <link href="\',escape=False)\n        response.write(_file)\n        response.write(\'" rel="stylesheet" type="text/css" charset="utf-8" />\',escape=False)\n    elif _file[-3:].lower()==\'.js\':\n        response.write(\'\\n     <script src="\',escape=False)\n        response.write(_file)\n        response.write(\'" type="text/javascript"></script>\',escape=False)\n        pass\n    pass\nresponse.write(\'\\n<script type="text/javascript"><!--\\nfunction popup(url) {\\n  newwindow=window.open(url,\\\'name\\\',\\\'height=400,width=600\\\');\\n  if (window.focus) newwindow.focus();\\n  return false;\\n}\\nfunction collapse(id) { jQuery(\\\'#\\\'+id).slideToggle(); }\\nfunction fade(id,value) { if(value>0) jQuery(\\\'#\\\'+id).hide().fadeIn(\\\'slow\\\'); else jQuery(\\\'#\\\'+id).show().fadeOut(\\\'slow\\\'); }\\nfunction ajax(u,s,t) {\\n  var query="";\\n  for(i=0; i<s.length; i++) { \\n     if(i>0) query=query+"&";\\n     query=query+encodeURIComponent(s[i])+"="+encodeURIComponent(document.getElementById(s[i]).value);\\n  }\\n  jQuery.ajax({type: "POST", url: u, data: query, success: function(msg) { if(t==\\\':eval\\\') eval(msg); else document.getElementById(t).innerHTML=msg; } });  \\n}\\nString.prototype.reverse = function () { return this.split(\\\'\\\').reverse().join(\\\'\\\');};\\nfunction web2py_ajax_init() {\\n  jQuery(\\\'.hidden\\\').hide();\\n  jQuery(\\\'.error\\\').hide().slideDown(\\\'slow\\\');\\n  jQuery(\\\'.flash\\\').click(function() { jQuery(this).fadeOut(\\\'slow\\\'); return false; });\\n  jQuery(\\\'input.string\\\').attr(\\\'size\\\',50);\\n  jQuery(\\\'textarea.text\\\').attr(\\\'cols\\\',50).attr(\\\'rows\\\',10);\\n  jQuery(\\\'input.integer\\\').keyup(function(){this.value=this.value.reverse().replace(/[^0-9\\\\-]|\\\\-(?=.)/g,\\\'\\\').reverse();});\\n  jQuery(\\\'input.double\\\').keyup(function(){this.value=this.value.reverse().replace(/[^0-9\\\\-\\\\.]|[\\\\-](?=.)|[\\\\.](?=[0-9]*[\\\\.])/g,\\\'\\\').reverse();});\\n  jQuery(\\\'input.delete\\\').attr(\\\'onclick\\\',\\\'if(this.checked) if(!confirm("\',escape=False)\nresponse.write(T(\'Sure you want to delete this object?\'))\nresponse.write(\'")) this.checked=false;\\\');\\n  try {jQuery("input.date").focus( function() {Calendar.setup({\\n     inputField:this.id, ifFormat:"\',escape=False)\nresponse.write(T(\'%Y-%m-%d\'))\nresponse.write(\'", showsTime:false\\n  }); }); } catch(e) {};\\n  try { jQuery("input.datetime").focus( function() {Calendar.setup({\\n     inputField:this.id, ifFormat:"\',escape=False)\nresponse.write(T(\'%Y-%m-%d %H:%M:%S\'))\nresponse.write(\'", showsTime: true,timeFormat: "24"\\n  }); }); } catch(e) {};\\n  try { jQuery("input.time").clockpick({\\n      starthour:0, endhour:23, showminutes:true, military:true\\n  }); } catch(e) {};\\n};\\njQuery(document).ready(function(){\\n   jQuery(\\\'.flash\\\').hide();\\n   if(jQuery(\\\'.flash\\\').html()!=\\\'\\\') jQuery(\\\'.flash\\\').slideDown(\\\'slow\\\');\\n   web2py_ajax_init();});\\n\\nfunction web2py_trap_form(action,target) {\\n   jQuery(\\\'#\\\'+target+\\\' form\\\').each(function(i){\\n      var form=jQuery(this);\\n      jQuery(\\\'input[type="submit"]\\\',this).click(function(){\\n         jQuery(\\\'.flash\\\').hide().html(\\\'\\\');\\n         web2py_ajax_page(\\\'post\\\',action,form.serialize(),target);\\n         return false;\\n      });\\n   });\\n}\\nfunction web2py_ajax_page(method,action,data,target) {\\n  jQuery.ajax({\\\'type\\\':method,\\\'url\\\':action,\\\'data\\\':data,\\n    \\\'beforeSend\\\':function(xhr){\\n      xhr.setRequestHeader(\\\'web2py-component-location\\\',document.location);\\n      xhr.setRequestHeader(\\\'web2py-component-element\\\',target);},\\n    \\\'complete\\\':function(xhr,text){\\n      command=xhr.getResponseHeader(\\\'web2py-component-command\\\');\\n      if(command) eval(command);\\n      flash=xhr.getResponseHeader(\\\'web2py-component-flash\\\');\\n      if(flash) jQuery(\\\'.flash\\\').html(flash).slideDown();\\n      },\\n    \\\'success\\\': function(text) {\\n      jQuery(\\\'#\\\'+target).html(text);\\n      web2py_trap_form(action,target);\\n      web2py_ajax_init();\\n      }\\n    });\\n}\\nfunction web2py_component(action,target) {\\n    jQuery(document).ready(function(){ web2py_ajax_page(\\\'get\\\',action,null,target); });\\n}\\n//--></script>\\n\\n  </head>\\n  <body>\\n    <div class="wrapper">\\n      <table class="layout">\\n        <tr>\\n          <td colspan="3"  class="header">\\n            <h1>\\n              \',escape=False)\nresponse.write(A(response.title or request.application, _href=URL(request.application,\'default\',\'index\')))\nresponse.write(\'\\n            </h1>\\n            \\n            <h3>\',escape=False)\nresponse.write(response.subtitle or \'\')\nresponse.write(\'</h3>\\n          </td>\\n        </tr>\\n        <tr>\\n          <td colspan="3" class="statusbar">\\n            \',escape=False)\nresponse.write(\'/\'.join([\'\',request.application,request.controller,request.function]+request.args))\nresponse.write(\'\\n          </td>\\n        </tr>\\n        <tr>\\n          <td class="width10em column1">\\n            \',escape=False)\nif response.menu_auth:\n    response.write(\'\\n            <h2>\',escape=False)\n    response.write(T(\'Authentication\'))\n    response.write(\'</h2>\\n            \',escape=False)\n    response.write(MENU(response.menu_auth))\n    response.write(\'\\n            \',escape=False)\n    pass\nresponse.write(\'\\n            \',escape=False)\nif response.menu:\n    response.write(\'\\n            <h2>\',escape=False)\n    response.write(T(\'Main Menu\'))\n    response.write(\'</h2>\\n            \',escape=False)\n    response.write(MENU(response.menu))\n    response.write(\'\\n            \',escape=False)\n    pass\nresponse.write(\'\\n            \',escape=False)\nif response.menu_edit:\n    response.write(\'\\n            <h2>\',escape=False)\n    response.write(T(\'Edit This App\'))\n    response.write(\'</h2>\\n            \',escape=False)\n    response.write(MENU(response.menu_edit))\n    response.write(\'\\n            \',escape=False)\n    pass\nresponse.write(\'\\n            <br />\\n          </td>\\n          <td class="expandable column2">\\n            <div class="flash">\',escape=False)\nresponse.write(response.flash or \'\')\nresponse.write(\'</div>\\n            \\n<div id="post_title">\',escape=False)\nresponse.write( post.title )\nresponse.write(\'</div>\\n<div id="post_body">\',escape=False)\nresponse.write( XML(post.body) )\nresponse.write(\'</div>\\n\\n<h2>Comments</h2>\\n\',escape=False)\nif post.comment.count() > 0:\n    response.write(\'\\n    \',escape=False)\n    for comment in post.comment.select():\n        response.write(\'\\n        <div class="comment_author">\',escape=False)\n        response.write( comment.author )\n        response.write(\'</div>\\n        <div class="comment_body">\',escape=False)\n        response.write( comment.comment )\n        response.write(\'</div>\\n    \',escape=False)\n        pass\n    response.write(\'\\n\',escape=False)\nelse:\n    response.write(\'\\n    <div class="info">No comments made for this post.</div>\\n\',escape=False)\n    pass:\n        response.write(\'\\n\\n<h2>Have Your Say</h2>\\n<form method="post" action="\',escape=False)\n        response.write( URL(r=request, c="comment", f="create") )\n        response.write(\'">\\n<input type="hidden" name="post_id" value="\',escape=False)\n        post.id\n        response.write(\'" />\\n<p>E-Mail Address:</p>\\n<p><input type="text" name="author" /></p>\\n<p>Comment:</p>\\n<p><textarea name="comment" rows="10" cols="40"></textarea></p>\\n<p><input type="submit" value="Post Comment" />\\n</form>\\n\\n          </td>\\n          <!--\\n               <td class="width10em column3">\\n                 <h2>Right Column</h2>\\n               </td>\\n          //-->\\n        </tr>\\n        <tr>\\n          <td colspan="10" class="footer">\\n            <p>\\n            \',escape=False)\n        response.write(T(\'Copyright\'))\n        response.write(\' &copy; 2009 -\\n            \',escape=False)\n        response.write(T(\'Powered by\'))\n        response.write(\' <a href="http://www.web2py.com">web2py</a>\\n            </p>\\n          </td>\\n        </tr>\\n      </table>\\n    </div>\\n  </body>\\n</html>\\n\',escape=False)'
p6
sS'traceback'
p7
S'Traceback (most recent call last):\n  File "/home/mengu/projects/web2py/gluon/restricted.py", line 182, in restricted\n    ccode = compile(code.replace(\'\\r\\n\', \'\\n\'), layer, \'exec\')\n  File "/home/mengu/projects/web2py/applications/blog/views/post/view.html", line 84\n    pass:\n        ^\nSyntaxError: invalid syntax\n'
p8
s.