(dp1
S'output'
p2
S''
sS'layer'
p3
S'/home/mengu/projects/web2py/applications/blog/controllers/post.py'
p4
sS'code'
p5
S'# coding: utf8\n# try something like\npages = db(db.page.id > 0).select()\ndef index():\n    posts = db(db.post.id > 0).select()\n    return dict(posts=posts, pages=pages)\n    \ndef view():\n    post = db.post[request.args(0)]\n    return dict(post=post, pages=pages)\n    \ndef new():\n\tcategories = db(db.category.id > 0).select()\n\tfor i in xrange(categories):\n\t\tprint categories(i)\n\treturn dict(categories=categories, pages=pages, selectedpage=1)\n\ndef create():\n\ttitle = request.vars.title\n\tbody = request.vars.body\n\tfor category in request.vars.category:\n\t\tprint category\n\treturn dict()\n\nresponse._vars=response._caller(new)\n'
p6
sS'traceback'
p7
S'Traceback (most recent call last):\n  File "/home/mengu/projects/web2py/gluon/restricted.py", line 184, in restricted\n    exec ccode in environment\n  File "/home/mengu/projects/web2py/applications/blog/controllers/post.py", line 25, in <module>\n  File "/home/mengu/projects/web2py/gluon/globals.py", line 102, in <lambda>\n    self._vars = None\n  File "/home/mengu/projects/web2py/applications/blog/controllers/post.py", line 14, in new\n    for i in xrange(categories):\nTypeError: an integer is required\n'
p8
s.