(dp1
S'output'
p2
S''
sS'layer'
p3
S'/home/mengu/projects/web2py/applications/blog/models/comment.py'
p4
sS'code'
p5
S'# coding: utf8\n# try something like\n#db=DAL("sqlite://blog.db")\ndb.define_table(\'comment\',\n    Field(\'post_id\', \'integer\'),\n    Field(\'author\', \'string\'),\n    Field(\'comment\', \'text\'),\n)\n'
p6
sS'traceback'
p7
S'Traceback (most recent call last):\n  File "/home/mengu/projects/web2py/gluon/restricted.py", line 184, in restricted\n    exec ccode in environment\n  File "/home/mengu/projects/web2py/applications/blog/models/comment.py", line 4, in <module>\n    db.define_table(\'comment\',\nNameError: name \'db\' is not defined\n'
p8
s.