(dp1
S'output'
p2
S''
sS'layer'
p3
S'/home/mengu/projects/web2py/applications/blog/views/default/index.html'
p4
sS'code'
p5
S'response.write(\'<!DOCTYPE html PUBLIC "-//W3C//DTD XHTML 1.0 Transitional//EN" "http://www.w3.org/TR/xhtml1/DTD/xhtml1-transitional.dtd">\\n<html xmlns="http://www.w3.org/1999/xhtml" xml:lang="\',escape=False)\nresponse.write(T.accepted_language or \'en\')\nresponse.write(\'">\\n  <head>\\n    <title>\',escape=False)\nresponse.write(response.title or request.application)\nresponse.write(\'</title>\\n    <meta http-equiv="Content-Type" content="text/html; charset=UTF-8" />\\n    \\n    \',escape=False)\nresponse.files.append(URL(request.application,\'static\',\'blog.css\'))\nresponse.write(\'\\n    \',escape=False)\nresponse.files.insert(0,URL(r=request,c=\'static\',f=\'jquery.js\'))\nresponse.files.insert(1,URL(r=request,c=\'static\',f=\'calendar.css\'))\nresponse.files.insert(2,URL(r=request,c=\'static\',f=\'calendar.js\'))\nfor _item in response.meta or []:\n    response.write(\'\\n     <meta name="\',escape=False)\n    response.write(_item)\n    response.write(\'" content="\',escape=False)\n    response.write(response.meta[_item])\n    response.write(\'" />\',escape=False)\n    pass\nfor _file in tuple(set(response.files or [])):\n    if _file[-4:].lower()==\'.css\':\n        response.write(\'\\n     <link href="\',escape=False)\n        response.write(_file)\n        response.write(\'" rel="stylesheet" type="text/css" charset="utf-8" />\',escape=False)\n    elif _file[-3:].lower()==\'.js\':\n        response.write(\'\\n     <script src="\',escape=False)\n        response.write(_file)\n        response.write(\'" type="text/javascript"></script>\',escape=False)\n        pass\n    pass\nresponse.write(\'\\n<script type="text/javascript"><!--\\nfunction popup(url) {\\n  newwindow=window.open(url,\\\'name\\\',\\\'height=400,width=600\\\');\\n  if (window.focus) newwindow.focus();\\n  return false;\\n}\\nfunction collapse(id) { jQuery(\\\'#\\\'+id).slideToggle(); }\\nfunction fade(id,value) { if(value>0) jQuery(\\\'#\\\'+id).hide().fadeIn(\\\'slow\\\'); else jQuery(\\\'#\\\'+id).show().fadeOut(\\\'slow\\\'); }\\nfunction ajax(u,s,t) {\\n  var query="";\\n  for(i=0; i<s.length; i++) { \\n     if(i>0) query=query+"&";\\n     query=query+encodeURIComponent(s[i])+"="+encodeURIComponent(document.getElementById(s[i]).value);\\n  }\\n  jQuery.ajax({type: "POST", url: u, data: query, success: function(msg) { if(t==\\\':eval\\\') eval(msg); else document.getElementById(t).innerHTML=msg; } });  \\n}\\nString.prototype.reverse = function () { return this.split(\\\'\\\').reverse().join(\\\'\\\');};\\nfunction web2py_ajax_init() {\\n  jQuery(\\\'.hidden\\\').hide();\\n  jQuery(\\\'.error\\\').hide().slideDown(\\\'slow\\\');\\n  jQuery(\\\'.flash\\\').click(function() { jQuery(this).fadeOut(\\\'slow\\\'); return false; });\\n  jQuery(\\\'input.string\\\').attr(\\\'size\\\',50);\\n  jQuery(\\\'textarea.text\\\').attr(\\\'cols\\\',50).attr(\\\'rows\\\',10);\\n  jQuery(\\\'input.integer\\\').keyup(function(){this.value=this.value.reverse().replace(/[^0-9\\\\-]|\\\\-(?=.)/g,\\\'\\\').reverse();});\\n  jQuery(\\\'input.double\\\').keyup(function(){this.value=this.value.reverse().replace(/[^0-9\\\\-\\\\.]|[\\\\-](?=.)|[\\\\.](?=[0-9]*[\\\\.])/g,\\\'\\\').reverse();});\\n  jQuery(\\\'input.delete\\\').attr(\\\'onclick\\\',\\\'if(this.checked) if(!confirm("\',escape=False)\nresponse.write(T(\'Sure you want to delete this object?\'))\nresponse.write(\'")) this.checked=false;\\\');\\n  try {jQuery("input.date").focus( function() {Calendar.setup({\\n     inputField:this.id, ifFormat:"\',escape=False)\nresponse.write(T(\'%Y-%m-%d\'))\nresponse.write(\'", showsTime:false\\n  }); }); } catch(e) {};\\n  try { jQuery("input.datetime").focus( function() {Calendar.setup({\\n     inputField:this.id, ifFormat:"\',escape=False)\nresponse.write(T(\'%Y-%m-%d %H:%M:%S\'))\nresponse.write(\'", showsTime: true,timeFormat: "24"\\n  }); }); } catch(e) {};\\n  try { jQuery("input.time").clockpick({\\n      starthour:0, endhour:23, showminutes:true, military:true\\n  }); } catch(e) {};\\n};\\njQuery(document).ready(function(){\\n   jQuery(\\\'.flash\\\').hide();\\n   if(jQuery(\\\'.flash\\\').html()!=\\\'\\\') jQuery(\\\'.flash\\\').slideDown(\\\'slow\\\');\\n   web2py_ajax_init();});\\n\\nfunction web2py_trap_form(action,target) {\\n   jQuery(\\\'#\\\'+target+\\\' form\\\').each(function(i){\\n      var form=jQuery(this);\\n      jQuery(\\\'input[type="submit"]\\\',this).click(function(){\\n         jQuery(\\\'.flash\\\').hide().html(\\\'\\\');\\n         web2py_ajax_page(\\\'post\\\',action,form.serialize(),target);\\n         return false;\\n      });\\n   });\\n}\\nfunction web2py_ajax_page(method,action,data,target) {\\n  jQuery.ajax({\\\'type\\\':method,\\\'url\\\':action,\\\'data\\\':data,\\n    \\\'beforeSend\\\':function(xhr){\\n      xhr.setRequestHeader(\\\'web2py-component-location\\\',document.location);\\n      xhr.setRequestHeader(\\\'web2py-component-element\\\',target);},\\n    \\\'complete\\\':function(xhr,text){\\n      command=xhr.getResponseHeader(\\\'web2py-component-command\\\');\\n      if(command) eval(command);\\n      flash=xhr.getResponseHeader(\\\'web2py-component-flash\\\');\\n      if(flash) jQuery(\\\'.flash\\\').html(flash).slideDown();\\n      },\\n    \\\'success\\\': function(text) {\\n      jQuery(\\\'#\\\'+target).html(text);\\n      web2py_trap_form(action,target);\\n      web2py_ajax_init();\\n      }\\n    });\\n}\\nfunction web2py_component(action,target) {\\n    jQuery(document).ready(function(){ web2py_ajax_page(\\\'get\\\',action,null,target); });\\n}\\n//--></script>\\n\\n  </head>\\n  <body>\\n  \\t<div>\\n\\t\\t\\t<div id="header" style="padding-left: 150px;">\\n\\t\\t\\t<div style="padding-top: 20px;">\\n\\t\\t\\t<div class="logo"><a href="\',escape=False)\nresponse.write( URL(request.application, c="post", f="index"))\nresponse.write(\'"><span class="f">M</span>ENGU.</div><div class="logo"><span class="f">N</span>ET</div></a></div>\\n\\t\\t\\t<div class="description">mengu\\\'s personal blog on web programming.</div>\\n\\t\\t\\t</div>\\n\\t\\t\\t</div>\\n\\t\\t\\t<div id="menu" style="padding-left: 150px;">\\n\\t\\t\\t\\t<ul>\\n\\t\\t\\t\\t\\t\',escape=False)\nfor page in pages:\n    response.write(\'\\n\\t\\t\\t\\t\\t<li\',escape=False)\n    if selectedpage and selectedpage == page.id:\n        response.write(\' class="selected" \',escape=False)\n        pass\n    response.write(\'><a href="\',escape=False)\n    if page.link:\n        response.write(\' \',escape=False)\n        response.write( page.link )\n        response.write(\' \',escape=False)\n    else:\n        response.write(\' \',escape=False)\n        response.write( URL(request.application, c="page", f="view", args=page.id))\n        response.write(\' \',escape=False)\n        pass\n    response.write(\'">\',escape=False)\n    response.write( page.title )\n    response.write(\'</a></li>\\n\\t\\t\\t\\t\\t\',escape=False)\n    pass\nresponse.write(\'\\n\\t\\t\\t\\t</ul>\\n\\t\\t\\t</div>\\n\\t\\t\\t\\n<div id="posts">\\n\\n\',escape=False)\nfor post in posts:\n    response.write(\'\\n    <div class="post_title"><a href="\',escape=False)\n    response.write( URL(r=request, c="post", f="view", args=post.id) )\n    response.write(\'">\',escape=False)\n    response.write( post.title )\n    response.write(\'</a></div>\\n    <div class="post_info">\',escape=False)\n    response.write( post.dateline.strftime("%B %d, %Y") )\n    response.write(\'</div>  <div class="post_info" style="margin-left: 3px;">\',escape=False)\n    if post.comment.count() > 0:\n        response.write(\' <a href="\',escape=False)\n        response.write(XML(URL(r=request, c="post", f="view", args=str(post.id)+"/#comments")))\n        response.write(\'">\',escape=False)\n        response.write( post.comment.count() )\n        response.write(\' Comments</a> \',escape=False)\n    else:\n        response.write(\'\',escape=False)\n        response.write( post.comment.count() )\n        response.write(\' Comments\',escape=False)\n        pass\n    response.write(\'</div>\\n    <div class="post_body">\',escape=False)\n    response.write( WIKI(post.body) )\n    response.write(\'</div>\\n    <div class="post_info">Posted under \',escape=False)\n    c = 0\n    response.write(\' \',escape=False)\n    for category in post.categories:\n        response.write(\'<a href="/blog/category/view/\',escape=False)\n        response.write(category)\n        response.write(\'">\',escape=False)\n        response.write( post.categories[category] )\n        response.write(\'</a>\',escape=False)\n        c = c + 1\n        response.write(\'\',escape=False)\n        if c == len(post.categories):\n            response.write(\'.\',escape=False)\n        else:\n            response.write(\',\',escape=False)\n            pass\n        response.write(\' \',escape=False)\n        pass\n    response.write(\'</div>\\n\',escape=False)\n    pass\nresponse.write(\'\\n\\n\\n\\t\',escape=False)\nif totalpages > 1:\n    response.write(\'\\n\\t<div class="pages">\\n\\t\',escape=False)\n    for i in range(0, totalpages):\n        response.write(\'\\n\\t\\t<div class="page \',escape=False)\n        if request.vars.page == i+1:\n            response.write(\'selected\',escape=False)\n            pass\n        response.write(\'"><a href="/blog/?page=\',escape=False)\n        response.write(i+1)\n        response.write(\'">\',escape=False)\n        response.write(i+1)\n        response.write(\'</a></div>\\n\\t\',escape=False)\n        pass\n    response.write(\'\\n\\t</div>\\n\\t\',escape=False)\n    pass\nresponse.write(\'\\n\\n</div>\\n\\n\\n\\n\\t\\t</div>\\n\\t\\t<div id="sidebar">\\n\\t\\t\\t<div style="padding: 10px;">\\t\\n\\t\\t\\t\\n\\t\\t\\t\\t<div class="desc">Pages</div>\\n\\t\\t\\t\\t<div class="content">\\n\\t\\t\\t\\t\',escape=False)\nfor page in pages:\n    response.write(\'\\n\\t\\t\\t\\t\\t<div><a href="\',escape=False)\n    if page.link:\n        response.write(\'\',escape=False)\n        response.write( page.link )\n        response.write(\'\',escape=False)\n    else:\n        response.write(\'\',escape=False)\n        response.write( URL(request.application, c="page", f="view", args=page.id) )\n        response.write(\'\',escape=False)\n        pass\n    response.write(\'">\',escape=False)\n    response.write( page.title )\n    response.write(\'</a></div>\\n\\t\\t\\t\\t\',escape=False)\n    pass\nresponse.write(\'\\n\\t\\t\\t\\t</div>\\n\\t\\t\\t\\t\\n\\t\\t\\t\\t<div class="desc padding">Recent Posts</div>\\n\\t\\t\\t\\t<div class="content">\\n\\t\\t\\t\\t\\t\',escape=False)\nresponse.write( XML(getRecentPosts(5)) )\nresponse.write(\'\\n\\t\\t\\t\\t</div>\\n\\t\\t\\t\\t\\n\\t\\t\\t\\t<div class="desc padding">Recent Comments</div>\\n\\t\\t\\t\\t<div class="content">\\n\\t\\t\\t\\t\\t\',escape=False)\nresponse.write( XML(getRecentComments(10)) )\nresponse.write(\'\\n\\t\\t\\t\\t</div>\\n\\t\\t\\t\\t\\n\\t\\t\\t\\t<div class="desc padding">Categories</div>\\n\\t\\t\\t\\t<div class="content">\\n\\t\\t\\t\\t\\t\',escape=False)\nresponse.write( XML(getCategories()) )\nresponse.write(\'\\n\\t\\t\\t\\t</div>\\n\\t\\t\\t\\t\\n\\t\\t\\t\\t<div class="desc padding">Archives</div>\\n\\t\\t\\t\\t<div class="content">\\n\\t\\t\\t\\t\\t\',escape=False)\nresponse.write( XML(getArchives()) )\nresponse.write(\'\\n\\t\\t\\t\\t</div>\\n\\t\\t\\t\\t\\n\\t\\t\\t</div>\\n\\t\\t</div>\\n\\t\\t<div style="clear: both;"></div>\\n    \\n  </body>\\n</html>\\n\',escape=False)'
p6
sS'traceback'
p7
S'Traceback (most recent call last):\n  File "/home/mengu/projects/web2py/gluon/restricted.py", line 184, in restricted\n    exec ccode in environment\n  File "/home/mengu/projects/web2py/applications/blog/views/default/index.html", line 138, in <module>\n  File "/home/mengu/projects/web2py/applications/blog/models/post.py", line 27, in getArchives\n    archiveList += str(DIV(XML(\'<a href="\'+URL(r=request, c="archive", v="view", args=archive.dateline.month)+\'">\'+archive.dateline.month+archive.dateline.year+\'</a>\')))\nTypeError: URL() got an unexpected keyword argument \'v\'\n'
p8
s.