(dp1
S'output'
p2
S''
sS'layer'
p3
S'/home/mengu/projects/web2py/applications/blog/models/comment.py'
p4
sS'code'
p5
S'# coding: utf8\n# try something like\ndb=DAL("sqlite://blog.db")\ndb.define_table(\'comment\',\n    Field(\'post_id\', db.post),\n    Field(\'author\', \'string\'),\n    Field(\'comment\', \'text\'),\n)\n'
p6
sS'traceback'
p7
S'Traceback (most recent call last):\n  File "/home/mengu/projects/web2py/gluon/restricted.py", line 184, in restricted\n    exec ccode in environment\n  File "/home/mengu/projects/web2py/applications/blog/models/comment.py", line 5, in <module>\n    Field(\'post_id\', db.post),\n  File "/home/mengu/projects/web2py/gluon/sql.py", line 1148, in __getattr__\n    return dict.__getitem__(self,key)\nKeyError: \'post\'\n'
p8
s.